; ModuleID = '7/845.c'
source_filename = "7/845.c"
target datalayout = "e-m:e-p270:32:32-p271:32:32-p272:64:64-i64:64-f80:128-n8:16:32:64-S128"
target triple = "x86_64-pc-linux-gnu"

@.str = private unnamed_addr constant [7 x i8] c"%s%s%s\00", align 1

; Function Attrs: noinline nounwind uwtable
define dso_local i32 @main() #0 {
  %1 = alloca i32, align 4
  %2 = alloca [257 x i8], align 16
  %3 = alloca [257 x i8], align 16
  %4 = alloca [257 x i8], align 16
  %5 = alloca [257 x i8], align 16
  %6 = alloca [257 x i8], align 16
  %7 = alloca [257 x i8], align 16
  %8 = alloca i32, align 4
  %9 = alloca i32, align 4
  %10 = alloca i32, align 4
  %11 = alloca i32, align 4
  %12 = alloca i32, align 4
  %13 = alloca i32, align 4
  store i32 0, i32* %1, align 4
  store i32 1, i32* %13, align 4
  %14 = getelementptr inbounds [257 x i8], [257 x i8]* %2, i64 0, i64 0
  %15 = call i32 (i8*, ...) bitcast (i32 (...)* @gets to i32 (i8*, ...)*)(i8* %14)
  %16 = getelementptr inbounds [257 x i8], [257 x i8]* %3, i64 0, i64 0
  %17 = call i32 (i8*, ...) bitcast (i32 (...)* @gets to i32 (i8*, ...)*)(i8* %16)
  %18 = getelementptr inbounds [257 x i8], [257 x i8]* %6, i64 0, i64 0
  %19 = call i32 (i8*, ...) bitcast (i32 (...)* @gets to i32 (i8*, ...)*)(i8* %18)
  %20 = getelementptr inbounds [257 x i8], [257 x i8]* %2, i64 0, i64 0
  %21 = call i64 @strlen(i8* %20) #3
  %22 = trunc i64 %21 to i32
  store i32 %22, i32* %9, align 4
  %23 = getelementptr inbounds [257 x i8], [257 x i8]* %3, i64 0, i64 0
  %24 = call i64 @strlen(i8* %23) #3
  %25 = trunc i64 %24 to i32
  store i32 %25, i32* %10, align 4
  store i32 0, i32* %8, align 4
  br label %26

26:                                               ; preds = %99, %0
  %27 = load i32, i32* %8, align 4
  %28 = load i32, i32* %9, align 4
  %29 = icmp slt i32 %27, %28
  br i1 %29, label %30, label %102

30:                                               ; preds = %26
  %31 = load i32, i32* %8, align 4
  %32 = sext i32 %31 to i64
  %33 = getelementptr inbounds [257 x i8], [257 x i8]* %2, i64 0, i64 %32
  %34 = load i8, i8* %33, align 1
  %35 = load i32, i32* %8, align 4
  %36 = sext i32 %35 to i64
  %37 = getelementptr inbounds [257 x i8], [257 x i8]* %5, i64 0, i64 %36
  store i8 %34, i8* %37, align 1
  store i32 0, i32* %11, align 4
  br label %38

38:                                               ; preds = %52, %30
  %39 = load i32, i32* %11, align 4
  %40 = load i32, i32* %10, align 4
  %41 = icmp slt i32 %39, %40
  br i1 %41, label %42, label %55

42:                                               ; preds = %38
  %43 = load i32, i32* %8, align 4
  %44 = load i32, i32* %11, align 4
  %45 = add nsw i32 %43, %44
  %46 = sext i32 %45 to i64
  %47 = getelementptr inbounds [257 x i8], [257 x i8]* %2, i64 0, i64 %46
  %48 = load i8, i8* %47, align 1
  %49 = load i32, i32* %11, align 4
  %50 = sext i32 %49 to i64
  %51 = getelementptr inbounds [257 x i8], [257 x i8]* %4, i64 0, i64 %50
  store i8 %48, i8* %51, align 1
  br label %52

52:                                               ; preds = %42
  %53 = load i32, i32* %11, align 4
  %54 = add nsw i32 %53, 1
  store i32 %54, i32* %11, align 4
  br label %38

55:                                               ; preds = %38
  %56 = load i32, i32* %10, align 4
  %57 = sext i32 %56 to i64
  %58 = getelementptr inbounds [257 x i8], [257 x i8]* %4, i64 0, i64 %57
  store i8 0, i8* %58, align 1
  %59 = getelementptr inbounds [257 x i8], [257 x i8]* %3, i64 0, i64 0
  %60 = getelementptr inbounds [257 x i8], [257 x i8]* %4, i64 0, i64 0
  %61 = call i32 @strcmp(i8* %59, i8* %60) #3
  %62 = icmp eq i32 %61, 0
  br i1 %62, label %63, label %98

63:                                               ; preds = %55
  %64 = load i32, i32* %8, align 4
  %65 = sext i32 %64 to i64
  %66 = getelementptr inbounds [257 x i8], [257 x i8]* %5, i64 0, i64 %65
  store i8 0, i8* %66, align 1
  store i32 0, i32* %12, align 4
  br label %67

67:                                               ; preds = %87, %63
  %68 = load i32, i32* %12, align 4
  %69 = load i32, i32* %9, align 4
  %70 = load i32, i32* %10, align 4
  %71 = sub nsw i32 %69, %70
  %72 = load i32, i32* %8, align 4
  %73 = sub nsw i32 %71, %72
  %74 = icmp slt i32 %68, %73
  br i1 %74, label %75, label %90

75:                                               ; preds = %67
  %76 = load i32, i32* %8, align 4
  %77 = load i32, i32* %10, align 4
  %78 = add nsw i32 %76, %77
  %79 = load i32, i32* %12, align 4
  %80 = add nsw i32 %78, %79
  %81 = sext i32 %80 to i64
  %82 = getelementptr inbounds [257 x i8], [257 x i8]* %2, i64 0, i64 %81
  %83 = load i8, i8* %82, align 1
  %84 = load i32, i32* %12, align 4
  %85 = sext i32 %84 to i64
  %86 = getelementptr inbounds [257 x i8], [257 x i8]* %7, i64 0, i64 %85
  store i8 %83, i8* %86, align 1
  br label %87

87:                                               ; preds = %75
  %88 = load i32, i32* %12, align 4
  %89 = add nsw i32 %88, 1
  store i32 %89, i32* %12, align 4
  br label %67

90:                                               ; preds = %67
  %91 = load i32, i32* %12, align 4
  %92 = sext i32 %91 to i64
  %93 = getelementptr inbounds [257 x i8], [257 x i8]* %7, i64 0, i64 %92
  store i8 0, i8* %93, align 1
  %94 = getelementptr inbounds [257 x i8], [257 x i8]* %5, i64 0, i64 0
  %95 = getelementptr inbounds [257 x i8], [257 x i8]* %6, i64 0, i64 0
  %96 = getelementptr inbounds [257 x i8], [257 x i8]* %7, i64 0, i64 0
  %97 = call i32 (i8*, ...) @printf(i8* getelementptr inbounds ([7 x i8], [7 x i8]* @.str, i64 0, i64 0), i8* %94, i8* %95, i8* %96)
  store i32 0, i32* %13, align 4
  br label %102

98:                                               ; preds = %55
  br label %99

99:                                               ; preds = %98
  %100 = load i32, i32* %8, align 4
  %101 = add nsw i32 %100, 1
  store i32 %101, i32* %8, align 4
  br label %26

102:                                              ; preds = %90, %26
  %103 = load i32, i32* %13, align 4
  %104 = icmp ne i32 %103, 0
  br i1 %104, label %105, label %108

105:                                              ; preds = %102
  %106 = getelementptr inbounds [257 x i8], [257 x i8]* %2, i64 0, i64 0
  %107 = call i32 @puts(i8* %106)
  br label %108

108:                                              ; preds = %105, %102
  ret i32 0
}

declare dso_local i32 @gets(...) #1

; Function Attrs: nounwind readonly
declare dso_local i64 @strlen(i8*) #2

; Function Attrs: nounwind readonly
declare dso_local i32 @strcmp(i8*, i8*) #2

declare dso_local i32 @printf(i8*, ...) #1

declare dso_local i32 @puts(i8*) #1


!llvm.module.flags = !{!0}
!llvm.ident = !{!1}

!0 = !{i32 1, !"wchar_size", i32 4}
!1 = !{!"clang version 10.0.0-4ubuntu1 "}
